; Function Attrs: mustprogress uwtable
define hidden void @_ZN4cvc58internal6theory2bv8TheoryBV16notifySharedTermENS0_12NodeTemplateILb0EEE(ptr nocapture noundef nonnull readonly align 8 dereferenceable(3808) %this, ptr nocapture noundef readonly %t) unnamed_addr #3 align 2 personality ptr @__gxx_personality_v0 {
entry:
  %agg.tmp = alloca %"class.cvc5::internal::NodeTemplate.561", align 8
  %d_internal = getelementptr inbounds i8, ptr %this, i64 408
  %0 = load ptr, ptr %d_internal, align 8
  %1 = load ptr, ptr %t, align 8
  store ptr %1, ptr %agg.tmp, align 8
  %vtable = load ptr, ptr %0, align 8
  %vfn = getelementptr inbounds i8, ptr %vtable, i64 144
  %2 = load ptr, ptr %vfn, align 8
  call void %2(ptr noundef nonnull align 8 dereferenceable(32) %0, ptr noundef nonnull %agg.tmp)
  ret void
}